target datalayout = "e-m:e-p270:32:32-p271:32:32-p272:64:64-i64:64-i128:128-f80:128-n8:16:32:64-S128"
target triple = "x86_64-pc-linux-gnu"

%"class.std::basic_string_view" = type { i64, ptr }

@.str.71 = private unnamed_addr constant [10 x i8] c"abcdefghi\00", align 1
@.str.72 = private unnamed_addr constant [12 x i8] c"\22abcdefghi\22\00", align 1
@.str.73 = private unnamed_addr constant [11 x i8] c"abcdefghij\00", align 1
@.str.74 = private unnamed_addr constant [13 x i8] c"\22abcdefghij\22\00", align 1
@.str.75 = private unnamed_addr constant [12 x i8] c"abcdefghijk\00", align 1
@.str.76 = private unnamed_addr constant [31 x i8] c"\22abcdefghij\22 \C2\AB1 byte elided\C2\BB\00", align 1
@.str.77 = private unnamed_addr constant [13 x i8] c"abcdefghijkl\00", align 1
@.str.78 = private unnamed_addr constant [32 x i8] c"\22abcdefghij\22 \C2\AB2 bytes elided\C2\BB\00", align 1
@.str.79 = private unnamed_addr constant [14 x i8] c"abcdefghijklm\00", align 1
@.str.80 = private unnamed_addr constant [32 x i8] c"\22abcdefghij\22 \C2\AB3 bytes elided\C2\BB\00", align 1

; Function Attrs: mustprogress nounwind uwtable
define linkonce_odr noundef i64 @_ZNSt11char_traitsIcE6lengthEPKc(ptr noundef %0) #4 comdat align 2 {
  %2 = alloca ptr, align 8
  store ptr %0, ptr %2, align 8
  %3 = load ptr, ptr %2, align 8
  %4 = call i64 @strlen(ptr noundef %3) #3
  ret i64 %4
}

; Function Attrs: mustprogress nounwind uwtable
define linkonce_odr void @_ZNSt17basic_string_viewIcSt11char_traitsIcEEC2EPKc(ptr noundef nonnull align 8 dereferenceable(16) %0, ptr noundef nonnull %1) unnamed_addr #4 comdat align 2 {
  %3 = alloca ptr, align 8
  %4 = alloca ptr, align 8
  store ptr %0, ptr %3, align 8
  store ptr %1, ptr %4, align 8
  %5 = load ptr, ptr %3, align 8
  %6 = getelementptr inbounds %"class.std::basic_string_view", ptr %5, i32 0, i32 0
  %7 = load ptr, ptr %4, align 8
  %8 = call noundef i64 @_ZNSt11char_traitsIcE6lengthEPKc(ptr noundef %7)
  store i64 %8, ptr %6, align 8
  %9 = getelementptr inbounds %"class.std::basic_string_view", ptr %5, i32 0, i32 1
  %10 = load ptr, ptr %4, align 8
  store ptr %10, ptr %9, align 8
  ret void
}

; Function Attrs: mustprogress uwtable
define void @_ZN3nix44StringPrintingTests_maxLengthTruncation_Test8TestBodyEv(ptr noundef nonnull align 8 dereferenceable(1272) %0) unnamed_addr #5 align 2 {
  %2 = alloca ptr, align 8
  %3 = alloca %"class.std::basic_string_view", align 8
  %4 = alloca %"class.std::basic_string_view", align 8
  %5 = alloca %"class.std::basic_string_view", align 8
  %6 = alloca %"class.std::basic_string_view", align 8
  %7 = alloca %"class.std::basic_string_view", align 8
  %8 = alloca %"class.std::basic_string_view", align 8
  %9 = alloca %"class.std::basic_string_view", align 8
  %10 = alloca %"class.std::basic_string_view", align 8
  %11 = alloca %"class.std::basic_string_view", align 8
  %12 = alloca %"class.std::basic_string_view", align 8
  store ptr %0, ptr %2, align 8
  %13 = load ptr, ptr %2, align 8
  call void @_ZNSt17basic_string_viewIcSt11char_traitsIcEEC2EPKc(ptr noundef nonnull align 8 dereferenceable(16) %3, ptr noundef @.str.71) #3
  call void @_ZNSt17basic_string_viewIcSt11char_traitsIcEEC2EPKc(ptr noundef nonnull align 8 dereferenceable(16) %4, ptr noundef @.str.72) #3
  %14 = getelementptr inbounds { i64, ptr }, ptr %3, i32 0, i32 0
  %15 = load i64, ptr %14, align 8
  %16 = getelementptr inbounds { i64, ptr }, ptr %3, i32 0, i32 1
  %17 = load ptr, ptr %16, align 8
  %18 = getelementptr inbounds { i64, ptr }, ptr %4, i32 0, i32 0
  %19 = load i64, ptr %18, align 8
  %20 = getelementptr inbounds { i64, ptr }, ptr %4, i32 0, i32 1
  %21 = load ptr, ptr %20, align 8
  call void @_ZN3nix19StringPrintingTests4testIJEEEvSt17basic_string_viewIcSt11char_traitsIcEES5_jDpT_(ptr noundef nonnull align 8 dereferenceable(1272) %13, i64 %15, ptr %17, i64 %19, ptr %21, i32 noundef 10)
  call void @_ZNSt17basic_string_viewIcSt11char_traitsIcEEC2EPKc(ptr noundef nonnull align 8 dereferenceable(16) %5, ptr noundef @.str.73) #3
  call void @_ZNSt17basic_string_viewIcSt11char_traitsIcEEC2EPKc(ptr noundef nonnull align 8 dereferenceable(16) %6, ptr noundef @.str.74) #3
  %22 = getelementptr inbounds { i64, ptr }, ptr %5, i32 0, i32 0
  %23 = load i64, ptr %22, align 8
  %24 = getelementptr inbounds { i64, ptr }, ptr %5, i32 0, i32 1
  %25 = load ptr, ptr %24, align 8
  %26 = getelementptr inbounds { i64, ptr }, ptr %6, i32 0, i32 0
  %27 = load i64, ptr %26, align 8
  %28 = getelementptr inbounds { i64, ptr }, ptr %6, i32 0, i32 1
  %29 = load ptr, ptr %28, align 8
  call void @_ZN3nix19StringPrintingTests4testIJEEEvSt17basic_string_viewIcSt11char_traitsIcEES5_jDpT_(ptr noundef nonnull align 8 dereferenceable(1272) %13, i64 %23, ptr %25, i64 %27, ptr %29, i32 noundef 10)
  call void @_ZNSt17basic_string_viewIcSt11char_traitsIcEEC2EPKc(ptr noundef nonnull align 8 dereferenceable(16) %7, ptr noundef @.str.75) #3
  call void @_ZNSt17basic_string_viewIcSt11char_traitsIcEEC2EPKc(ptr noundef nonnull align 8 dereferenceable(16) %8, ptr noundef @.str.76) #3
  %30 = getelementptr inbounds { i64, ptr }, ptr %7, i32 0, i32 0
  %31 = load i64, ptr %30, align 8
  %32 = getelementptr inbounds { i64, ptr }, ptr %7, i32 0, i32 1
  %33 = load ptr, ptr %32, align 8
  %34 = getelementptr inbounds { i64, ptr }, ptr %8, i32 0, i32 0
  %35 = load i64, ptr %34, align 8
  %36 = getelementptr inbounds { i64, ptr }, ptr %8, i32 0, i32 1
  %37 = load ptr, ptr %36, align 8
  call void @_ZN3nix19StringPrintingTests4testIJEEEvSt17basic_string_viewIcSt11char_traitsIcEES5_jDpT_(ptr noundef nonnull align 8 dereferenceable(1272) %13, i64 %31, ptr %33, i64 %35, ptr %37, i32 noundef 10)
  call void @_ZNSt17basic_string_viewIcSt11char_traitsIcEEC2EPKc(ptr noundef nonnull align 8 dereferenceable(16) %9, ptr noundef @.str.77) #3
  call void @_ZNSt17basic_string_viewIcSt11char_traitsIcEEC2EPKc(ptr noundef nonnull align 8 dereferenceable(16) %10, ptr noundef @.str.78) #3
  %38 = getelementptr inbounds { i64, ptr }, ptr %9, i32 0, i32 0
  %39 = load i64, ptr %38, align 8
  %40 = getelementptr inbounds { i64, ptr }, ptr %9, i32 0, i32 1
  %41 = load ptr, ptr %40, align 8
  %42 = getelementptr inbounds { i64, ptr }, ptr %10, i32 0, i32 0
  %43 = load i64, ptr %42, align 8
  %44 = getelementptr inbounds { i64, ptr }, ptr %10, i32 0, i32 1
  %45 = load ptr, ptr %44, align 8
  call void @_ZN3nix19StringPrintingTests4testIJEEEvSt17basic_string_viewIcSt11char_traitsIcEES5_jDpT_(ptr noundef nonnull align 8 dereferenceable(1272) %13, i64 %39, ptr %41, i64 %43, ptr %45, i32 noundef 10)
  call void @_ZNSt17basic_string_viewIcSt11char_traitsIcEEC2EPKc(ptr noundef nonnull align 8 dereferenceable(16) %11, ptr noundef @.str.79) #3
  call void @_ZNSt17basic_string_viewIcSt11char_traitsIcEEC2EPKc(ptr noundef nonnull align 8 dereferenceable(16) %12, ptr noundef @.str.80) #3
  %46 = getelementptr inbounds { i64, ptr }, ptr %11, i32 0, i32 0
  %47 = load i64, ptr %46, align 8
  %48 = getelementptr inbounds { i64, ptr }, ptr %11, i32 0, i32 1
  %49 = load ptr, ptr %48, align 8
  %50 = getelementptr inbounds { i64, ptr }, ptr %12, i32 0, i32 0
  %51 = load i64, ptr %50, align 8
  %52 = getelementptr inbounds { i64, ptr }, ptr %12, i32 0, i32 1
  %53 = load ptr, ptr %52, align 8
  call void @_ZN3nix19StringPrintingTests4testIJEEEvSt17basic_string_viewIcSt11char_traitsIcEES5_jDpT_(ptr noundef nonnull align 8 dereferenceable(1272) %13, i64 %47, ptr %49, i64 %51, ptr %53, i32 noundef 10)
  ret void
}

; Function Attrs: uwtable
define void @_ZTv0_n48_N3nix44StringPrintingTests_maxLengthTruncation_Test8TestBodyEv(ptr noundef %0) unnamed_addr #0 align 2 {
  %2 = alloca ptr, align 8
  store ptr %0, ptr %2, align 8
  %3 = load ptr, ptr %2, align 8
  %4 = load ptr, ptr %3, align 8
  %5 = getelementptr inbounds i8, ptr %4, i64 -48
  %6 = load i64, ptr %5, align 8
  %7 = getelementptr inbounds i8, ptr %3, i64 %6
  tail call void @_ZN3nix44StringPrintingTests_maxLengthTruncation_Test8TestBodyEv(ptr noundef nonnull align 8 dereferenceable(1272) %7)
  ret void
}