; Function Attrs: uwtable
define void @_ZTv0_n48_N3nix44StringPrintingTests_maxLengthTruncation_Test8TestBodyEv(ptr noundef %0) unnamed_addr #9 align 2 {
  %2 = load ptr, ptr %0, align 8
  %3 = getelementptr inbounds i8, ptr %2, i64 -48
  %4 = load i64, ptr %3, align 8
  %5 = getelementptr inbounds i8, ptr %0, i64 %4
  tail call void @_ZN3nix19StringPrintingTests4testIJEEEvSt17basic_string_viewIcSt11char_traitsIcEES5_jDpT_(ptr noundef nonnull align 8 dereferenceable(1272) %5, i64 9, ptr nonnull @.str.71, i64 11, ptr nonnull @.str.72, i32 noundef 10)
  tail call void @_ZN3nix19StringPrintingTests4testIJEEEvSt17basic_string_viewIcSt11char_traitsIcEES5_jDpT_(ptr noundef nonnull align 8 dereferenceable(1272) %5, i64 10, ptr nonnull @.str.73, i64 12, ptr nonnull @.str.74, i32 noundef 10)
  tail call void @_ZN3nix19StringPrintingTests4testIJEEEvSt17basic_string_viewIcSt11char_traitsIcEES5_jDpT_(ptr noundef nonnull align 8 dereferenceable(1272) %5, i64 11, ptr nonnull @.str.75, i64 30, ptr nonnull @.str.76, i32 noundef 10)
  tail call void @_ZN3nix19StringPrintingTests4testIJEEEvSt17basic_string_viewIcSt11char_traitsIcEES5_jDpT_(ptr noundef nonnull align 8 dereferenceable(1272) %5, i64 12, ptr nonnull @.str.77, i64 31, ptr nonnull @.str.78, i32 noundef 10)
  tail call void @_ZN3nix19StringPrintingTests4testIJEEEvSt17basic_string_viewIcSt11char_traitsIcEES5_jDpT_(ptr noundef nonnull align 8 dereferenceable(1272) %5, i64 13, ptr nonnull @.str.79, i64 31, ptr nonnull @.str.80, i32 noundef 10)
  ret void
}